; Function Attrs: mustprogress uwtable
define noundef ptr @_ZN18OpenImageIO_v2_6_024png_input_imageio_createEv() local_unnamed_addr #5 personality ptr @__gxx_personality_v0 {
entry:
  %call = tail call noundef ptr @_ZN18OpenImageIO_v2_6_010ImageInputnwEm(i64 noundef 312)
  invoke void @_ZN18OpenImageIO_v2_6_08PNGInputC2Ev(ptr noundef nonnull align 8 dereferenceable(312) %call)
          to label %invoke.cont unwind label %lpad

invoke.cont:                                      ; preds = %entry
  ret ptr %call

lpad:                                             ; preds = %entry
  %0 = landingpad { ptr, i32 }
          cleanup
  tail call void @_ZN18OpenImageIO_v2_6_010ImageInputdlEPv(ptr noundef %call) #25
  resume { ptr, i32 } %0
}